; Function Attrs: nounwind uwtable
define zeroext range(i8 0, 2) i8 @l_Lean_Elab_isAbortTacticException(ptr noundef %0) local_unnamed_addr #0 {
  %2 = ptrtoint ptr %0 to i64
  %3 = and i64 %2, 1
  %.not.i = icmp eq i64 %3, 0
  br i1 %.not.i, label %7, label %4

4:                                                ; preds = %1
  %5 = lshr i64 %2, 1
  %6 = trunc i64 %5 to i32
  br label %lean_obj_tag.exit

7:                                                ; preds = %1
  %8 = getelementptr i8, ptr %0, i64 4
  %.val.i = load i32, ptr %8, align 4
  %9 = lshr i32 %.val.i, 24
  br label %lean_obj_tag.exit

lean_obj_tag.exit:                                ; preds = %4, %7
  %.0.i6 = phi i32 [ %6, %4 ], [ %9, %7 ]
  %10 = icmp eq i32 %.0.i6, 0
  br i1 %10, label %25, label %11

11:                                               ; preds = %lean_obj_tag.exit
  %12 = getelementptr inbounds nuw i8, ptr %0, i64 8
  %13 = load ptr, ptr %12, align 8, !tbaa !4
  %14 = load ptr, ptr @l_Lean_Elab_throwAbortTactic___rarg___closed__1, align 8, !tbaa !4
  %15 = ptrtoint ptr %13 to i64
  %16 = and i64 %15, 1
  %17 = icmp ne i64 %16, 0
  %18 = ptrtoint ptr %14 to i64
  %19 = and i64 %18, 1
  %20 = icmp ne i64 %19, 0
  %or.cond = select i1 %17, i1 %20, i1 false
  br i1 %or.cond, label %21, label %.critedge.i, !prof !14

21:                                               ; preds = %11
  %22 = icmp eq ptr %13, %14
  br label %lean_nat_eq.exit

.critedge.i:                                      ; preds = %11
  %23 = tail call zeroext i1 @lean_nat_big_eq(ptr noundef %13, ptr noundef %14) #3
  br label %lean_nat_eq.exit

lean_nat_eq.exit:                                 ; preds = %21, %.critedge.i
  %.0.i = phi i1 [ %22, %21 ], [ %23, %.critedge.i ]
  %24 = zext i1 %.0.i to i8
  br label %25

25:                                               ; preds = %lean_obj_tag.exit, %lean_nat_eq.exit
  %.0 = phi i8 [ %24, %lean_nat_eq.exit ], [ 0, %lean_obj_tag.exit ]
  ret i8 %.0
}